; Function Attrs: mustprogress uwtable
define noalias nonnull ptr @lean_mk_string_from_bytes_unchecked(ptr noundef %0, i64 noundef %1) local_unnamed_addr #0 {
  %3 = tail call noundef i64 @_ZN4lean11utf8_strlenEPKcm(ptr noundef %0, i64 noundef %1)
  %4 = add i64 %1, 33
  %5 = tail call noalias ptr @mi_malloc(i64 noundef %4) #40
  %6 = icmp eq ptr %5, null
  br i1 %6, label %7, label %lean_mk_string_unchecked.exit

7:                                                ; preds = %2
  tail call void @lean_internal_panic_out_of_memory() #43
  unreachable

lean_mk_string_unchecked.exit:                    ; preds = %2
  %8 = add i64 %1, 1
  %9 = getelementptr inbounds nuw i8, ptr %5, i64 4
  store i32 1, ptr %5, align 4, !tbaa !23
  store i32 -117440512, ptr %9, align 4
  %10 = getelementptr inbounds nuw i8, ptr %5, i64 8
  store i64 %8, ptr %10, align 8, !tbaa !30
  %11 = getelementptr inbounds nuw i8, ptr %5, i64 16
  store i64 %8, ptr %11, align 8, !tbaa !30
  %12 = getelementptr inbounds nuw i8, ptr %5, i64 24
  store i64 %3, ptr %12, align 8, !tbaa !30
  %13 = getelementptr inbounds nuw i8, ptr %5, i64 32
  tail call void @llvm.memcpy.p0.p0.i64(ptr nonnull align 1 %13, ptr readonly align 1 %0, i64 %1, i1 false)
  %14 = getelementptr inbounds nuw i8, ptr %13, i64 %1
  store i8 0, ptr %14, align 1, !tbaa !57
  ret ptr %5
}